target datalayout = "e-m:e-p270:32:32-p271:32:32-p272:64:64-i64:64-i128:128-f80:128-n8:16:32:64-S128"
target triple = "x86_64-pc-linux-gnu"

%struct.Aig_Obj_t_ = type { %union.anon, ptr, ptr, i64, i32, i32, %union.anon.0 }
%union.anon = type { ptr }
%union.anon.0 = type { ptr }
%struct.Aig_Man_t_ = type { ptr, ptr, ptr, ptr, ptr, ptr, ptr, %struct.Aig_Obj_t_, i32, i32, i32, i32, i32, i32, [7 x i32], i32, ptr, i32, ptr, i32, ptr, i32, i32, i32, ptr, i32, i32, i32, i32, i32, ptr, ptr, i32, ptr, ptr, i32, ptr, ptr, i32, i32, i32, ptr, ptr, ptr, ptr, ptr, ptr, ptr, ptr, ptr, ptr, ptr, ptr, ptr, ptr, i32, ptr, ptr, ptr, ptr, i32, i64, i64, i64, ptr, ptr }

; Function Attrs: inlinehint nounwind uwtable
define internal i32 @Aig_IsComplement(ptr noundef %0) #2 {
  %2 = alloca ptr, align 8
  store ptr %0, ptr %2, align 8, !tbaa !8
  %3 = load ptr, ptr %2, align 8, !tbaa !8
  %4 = ptrtoint ptr %3 to i64
  %5 = and i64 %4, 1
  %6 = trunc i64 %5 to i32
  ret i32 %6
}

; Function Attrs: inlinehint nounwind uwtable
define internal i32 @Abc_MaxInt(i32 noundef %0, i32 noundef %1) #2 {
  %3 = alloca i32, align 4
  %4 = alloca i32, align 4
  store i32 %0, ptr %3, align 4, !tbaa !23
  store i32 %1, ptr %4, align 4, !tbaa !23
  %5 = load i32, ptr %3, align 4, !tbaa !23
  %6 = load i32, ptr %4, align 4, !tbaa !23
  %7 = icmp sgt i32 %5, %6
  br i1 %7, label %8, label %10

8:                                                ; preds = %2
  %9 = load i32, ptr %3, align 4, !tbaa !23
  br label %12

10:                                               ; preds = %2
  %11 = load i32, ptr %4, align 4, !tbaa !23
  br label %12

12:                                               ; preds = %10, %8
  %13 = phi i32 [ %9, %8 ], [ %11, %10 ]
  ret i32 %13
}

; Function Attrs: inlinehint nounwind uwtable
define internal i32 @Aig_ObjIsExor(ptr noundef %0) #2 {
  %2 = alloca ptr, align 8
  store ptr %0, ptr %2, align 8, !tbaa !8
  %3 = load ptr, ptr %2, align 8, !tbaa !8
  %4 = getelementptr inbounds nuw %struct.Aig_Obj_t_, ptr %3, i32 0, i32 3
  %5 = load i64, ptr %4, align 8
  %6 = and i64 %5, 7
  %7 = trunc i64 %6 to i32
  %8 = icmp eq i32 %7, 6
  %9 = zext i1 %8 to i32
  ret i32 %9
}

; Function Attrs: inlinehint nounwind uwtable
define internal ptr @Aig_Regular(ptr noundef %0) #2 {
  %2 = alloca ptr, align 8
  store ptr %0, ptr %2, align 8, !tbaa !8
  %3 = load ptr, ptr %2, align 8, !tbaa !8
  %4 = ptrtoint ptr %3 to i64
  %5 = and i64 %4, -2
  %6 = inttoptr i64 %5 to ptr
  ret ptr %6
}

; Function Attrs: inlinehint nounwind uwtable
define internal i32 @Aig_ObjIsHash(ptr noundef %0) #2 {
  %2 = alloca ptr, align 8
  store ptr %0, ptr %2, align 8, !tbaa !8
  %3 = load ptr, ptr %2, align 8, !tbaa !8
  %4 = getelementptr inbounds nuw %struct.Aig_Obj_t_, ptr %3, i32 0, i32 3
  %5 = load i64, ptr %4, align 8
  %6 = and i64 %5, 7
  %7 = trunc i64 %6 to i32
  %8 = icmp eq i32 %7, 5
  br i1 %8, label %16, label %9

9:                                                ; preds = %1
  %10 = load ptr, ptr %2, align 8, !tbaa !8
  %11 = getelementptr inbounds nuw %struct.Aig_Obj_t_, ptr %10, i32 0, i32 3
  %12 = load i64, ptr %11, align 8
  %13 = and i64 %12, 7
  %14 = trunc i64 %13 to i32
  %15 = icmp eq i32 %14, 6
  br label %16

16:                                               ; preds = %9, %1
  %17 = phi i1 [ true, %1 ], [ %15, %9 ]
  %18 = zext i1 %17 to i32
  ret i32 %18
}

; Function Attrs: inlinehint nounwind uwtable
define internal i32 @Aig_ObjPhaseReal(ptr noundef %0) #2 {
  %2 = alloca ptr, align 8
  store ptr %0, ptr %2, align 8, !tbaa !8
  %3 = load ptr, ptr %2, align 8, !tbaa !8
  %4 = icmp ne ptr %3, null
  br i1 %4, label %5, label %16

5:                                                ; preds = %1
  %6 = load ptr, ptr %2, align 8, !tbaa !8
  %7 = call ptr @Aig_Regular(ptr noundef %6)
  %8 = getelementptr inbounds nuw %struct.Aig_Obj_t_, ptr %7, i32 0, i32 3
  %9 = load i64, ptr %8, align 8
  %10 = lshr i64 %9, 3
  %11 = and i64 %10, 1
  %12 = trunc i64 %11 to i32
  %13 = load ptr, ptr %2, align 8, !tbaa !8
  %14 = call i32 @Aig_IsComplement(ptr noundef %13)
  %15 = xor i32 %12, %14
  br label %17

16:                                               ; preds = %1
  br label %17

17:                                               ; preds = %16, %5
  %18 = phi i32 [ %15, %5 ], [ 1, %16 ]
  ret i32 %18
}

; Function Attrs: inlinehint nounwind uwtable
define internal i32 @Aig_ObjLevelNew(ptr noundef %0) #2 {
  %2 = alloca ptr, align 8
  store ptr %0, ptr %2, align 8, !tbaa !8
  %3 = load ptr, ptr %2, align 8, !tbaa !8
  %4 = call ptr @Aig_ObjFanin1(ptr noundef %3)
  %5 = icmp ne ptr %4, null
  br i1 %5, label %6, label %26

6:                                                ; preds = %1
  %7 = load ptr, ptr %2, align 8, !tbaa !8
  %8 = call i32 @Aig_ObjIsExor(ptr noundef %7)
  %9 = add nsw i32 1, %8
  %10 = load ptr, ptr %2, align 8, !tbaa !8
  %11 = call ptr @Aig_ObjFanin0(ptr noundef %10)
  %12 = getelementptr inbounds nuw %struct.Aig_Obj_t_, ptr %11, i32 0, i32 3
  %13 = load i64, ptr %12, align 8
  %14 = lshr i64 %13, 32
  %15 = and i64 %14, 16777215
  %16 = trunc i64 %15 to i32
  %17 = load ptr, ptr %2, align 8, !tbaa !8
  %18 = call ptr @Aig_ObjFanin1(ptr noundef %17)
  %19 = getelementptr inbounds nuw %struct.Aig_Obj_t_, ptr %18, i32 0, i32 3
  %20 = load i64, ptr %19, align 8
  %21 = lshr i64 %20, 32
  %22 = and i64 %21, 16777215
  %23 = trunc i64 %22 to i32
  %24 = call i32 @Abc_MaxInt(i32 noundef %16, i32 noundef %23)
  %25 = add nsw i32 %9, %24
  br label %34

26:                                               ; preds = %1
  %27 = load ptr, ptr %2, align 8, !tbaa !8
  %28 = call ptr @Aig_ObjFanin0(ptr noundef %27)
  %29 = getelementptr inbounds nuw %struct.Aig_Obj_t_, ptr %28, i32 0, i32 3
  %30 = load i64, ptr %29, align 8
  %31 = lshr i64 %30, 32
  %32 = and i64 %31, 16777215
  %33 = trunc i64 %32 to i32
  br label %34

34:                                               ; preds = %26, %6
  %35 = phi i32 [ %25, %6 ], [ %33, %26 ]
  ret i32 %35
}

; Function Attrs: inlinehint nounwind uwtable
define internal ptr @Aig_ObjFanin1(ptr noundef %0) #2 {
  %2 = alloca ptr, align 8
  store ptr %0, ptr %2, align 8, !tbaa !8
  %3 = load ptr, ptr %2, align 8, !tbaa !8
  %4 = getelementptr inbounds nuw %struct.Aig_Obj_t_, ptr %3, i32 0, i32 2
  %5 = load ptr, ptr %4, align 8, !tbaa !35
  %6 = call ptr @Aig_Regular(ptr noundef %5)
  ret ptr %6
}

; Function Attrs: inlinehint nounwind uwtable
define internal void @Aig_ObjRef(ptr noundef %0) #2 {
  %2 = alloca ptr, align 8
  store ptr %0, ptr %2, align 8, !tbaa !8
  %3 = load ptr, ptr %2, align 8, !tbaa !8
  %4 = getelementptr inbounds nuw %struct.Aig_Obj_t_, ptr %3, i32 0, i32 3
  %5 = load i64, ptr %4, align 8
  %6 = lshr i64 %5, 6
  %7 = and i64 %6, 67108863
  %8 = trunc i64 %7 to i32
  %9 = add i32 %8, 1
  %10 = zext i32 %9 to i64
  %11 = load i64, ptr %4, align 8
  %12 = and i64 %10, 67108863
  %13 = shl i64 %12, 6
  %14 = and i64 %11, -4294967233
  %15 = or i64 %14, %13
  store i64 %15, ptr %4, align 8
  ret void
}

; Function Attrs: inlinehint nounwind uwtable
define internal ptr @Aig_ObjFanin0(ptr noundef %0) #2 {
  %2 = alloca ptr, align 8
  store ptr %0, ptr %2, align 8, !tbaa !8
  %3 = load ptr, ptr %2, align 8, !tbaa !8
  %4 = getelementptr inbounds nuw %struct.Aig_Obj_t_, ptr %3, i32 0, i32 1
  %5 = load ptr, ptr %4, align 8, !tbaa !34
  %6 = call ptr @Aig_Regular(ptr noundef %5)
  ret ptr %6
}

; Function Attrs: nounwind uwtable
define void @Aig_ObjConnect(ptr noundef %0, ptr noundef %1, ptr noundef %2, ptr noundef %3) #0 {
  %5 = alloca ptr, align 8
  %6 = alloca ptr, align 8
  %7 = alloca ptr, align 8
  %8 = alloca ptr, align 8
  store ptr %0, ptr %5, align 8, !tbaa !3
  store ptr %1, ptr %6, align 8, !tbaa !8
  store ptr %2, ptr %7, align 8, !tbaa !8
  store ptr %3, ptr %8, align 8, !tbaa !8
  %9 = load ptr, ptr %7, align 8, !tbaa !8
  %10 = load ptr, ptr %6, align 8, !tbaa !8
  %11 = getelementptr inbounds nuw %struct.Aig_Obj_t_, ptr %10, i32 0, i32 1
  store ptr %9, ptr %11, align 8, !tbaa !34
  %12 = load ptr, ptr %8, align 8, !tbaa !8
  %13 = load ptr, ptr %6, align 8, !tbaa !8
  %14 = getelementptr inbounds nuw %struct.Aig_Obj_t_, ptr %13, i32 0, i32 2
  store ptr %12, ptr %14, align 8, !tbaa !35
  %15 = load ptr, ptr %7, align 8, !tbaa !8
  %16 = icmp ne ptr %15, null
  br i1 %16, label %17, label %30

17:                                               ; preds = %4
  %18 = load ptr, ptr %6, align 8, !tbaa !8
  %19 = call ptr @Aig_ObjFanin0(ptr noundef %18)
  call void @Aig_ObjRef(ptr noundef %19)
  %20 = load ptr, ptr %5, align 8, !tbaa !3
  %21 = getelementptr inbounds nuw %struct.Aig_Man_t_, ptr %20, i32 0, i32 18
  %22 = load ptr, ptr %21, align 8, !tbaa !36
  %23 = icmp ne ptr %22, null
  br i1 %23, label %24, label %29

24:                                               ; preds = %17
  %25 = load ptr, ptr %5, align 8, !tbaa !3
  %26 = load ptr, ptr %6, align 8, !tbaa !8
  %27 = call ptr @Aig_ObjFanin0(ptr noundef %26)
  %28 = load ptr, ptr %6, align 8, !tbaa !8
  call void @Aig_ObjAddFanout(ptr noundef %25, ptr noundef %27, ptr noundef %28)
  br label %29

29:                                               ; preds = %24, %17
  br label %30

30:                                               ; preds = %29, %4
  %31 = load ptr, ptr %8, align 8, !tbaa !8
  %32 = icmp ne ptr %31, null
  br i1 %32, label %33, label %46

33:                                               ; preds = %30
  %34 = load ptr, ptr %6, align 8, !tbaa !8
  %35 = call ptr @Aig_ObjFanin1(ptr noundef %34)
  call void @Aig_ObjRef(ptr noundef %35)
  %36 = load ptr, ptr %5, align 8, !tbaa !3
  %37 = getelementptr inbounds nuw %struct.Aig_Man_t_, ptr %36, i32 0, i32 18
  %38 = load ptr, ptr %37, align 8, !tbaa !36
  %39 = icmp ne ptr %38, null
  br i1 %39, label %40, label %45

40:                                               ; preds = %33
  %41 = load ptr, ptr %5, align 8, !tbaa !3
  %42 = load ptr, ptr %6, align 8, !tbaa !8
  %43 = call ptr @Aig_ObjFanin1(ptr noundef %42)
  %44 = load ptr, ptr %6, align 8, !tbaa !8
  call void @Aig_ObjAddFanout(ptr noundef %41, ptr noundef %43, ptr noundef %44)
  br label %45

45:                                               ; preds = %40, %33
  br label %46

46:                                               ; preds = %45, %30
  %47 = load ptr, ptr %6, align 8, !tbaa !8
  %48 = call i32 @Aig_ObjLevelNew(ptr noundef %47)
  %49 = load ptr, ptr %6, align 8, !tbaa !8
  %50 = getelementptr inbounds nuw %struct.Aig_Obj_t_, ptr %49, i32 0, i32 3
  %51 = zext i32 %48 to i64
  %52 = load i64, ptr %50, align 8
  %53 = and i64 %51, 16777215
  %54 = shl i64 %53, 32
  %55 = and i64 %52, -72057589742960641
  %56 = or i64 %55, %54
  store i64 %56, ptr %50, align 8
  %57 = load ptr, ptr %7, align 8, !tbaa !8
  %58 = call i32 @Aig_ObjPhaseReal(ptr noundef %57)
  %59 = load ptr, ptr %8, align 8, !tbaa !8
  %60 = call i32 @Aig_ObjPhaseReal(ptr noundef %59)
  %61 = and i32 %58, %60
  %62 = load ptr, ptr %6, align 8, !tbaa !8
  %63 = getelementptr inbounds nuw %struct.Aig_Obj_t_, ptr %62, i32 0, i32 3
  %64 = zext i32 %61 to i64
  %65 = load i64, ptr %63, align 8
  %66 = and i64 %64, 1
  %67 = shl i64 %66, 3
  %68 = and i64 %65, -9
  %69 = or i64 %68, %67
  store i64 %69, ptr %63, align 8
  %70 = load ptr, ptr %5, align 8, !tbaa !3
  %71 = getelementptr inbounds nuw %struct.Aig_Man_t_, ptr %70, i32 0, i32 16
  %72 = load ptr, ptr %71, align 8, !tbaa !37
  %73 = icmp ne ptr %72, null
  br i1 %73, label %74, label %81

74:                                               ; preds = %46
  %75 = load ptr, ptr %6, align 8, !tbaa !8
  %76 = call i32 @Aig_ObjIsHash(ptr noundef %75)
  %77 = icmp ne i32 %76, 0
  br i1 %77, label %78, label %81

78:                                               ; preds = %74
  %79 = load ptr, ptr %5, align 8, !tbaa !3
  %80 = load ptr, ptr %6, align 8, !tbaa !8
  call void @Aig_TableInsert(ptr noundef %79, ptr noundef %80)
  br label %81

81:                                               ; preds = %78, %74, %46
  ret void
}