; Function Attrs: nounwind uwtable
define void @Aig_ObjConnect(ptr noundef %0, ptr noundef initializes((8, 24)) %1, ptr noundef %2, ptr noundef %3) local_unnamed_addr #0 {
  %5 = getelementptr inbounds nuw i8, ptr %1, i64 8
  store ptr %2, ptr %5, align 8, !tbaa !31
  %6 = getelementptr inbounds nuw i8, ptr %1, i64 16
  store ptr %3, ptr %6, align 8, !tbaa !32
  %.not = icmp eq ptr %2, null
  br i1 %.not, label %23, label %7

7:                                                ; preds = %4
  %8 = ptrtoint ptr %2 to i64
  %9 = and i64 %8, -2
  %10 = inttoptr i64 %9 to ptr
  %11 = getelementptr inbounds nuw i8, ptr %10, i64 24
  %12 = load i64, ptr %11, align 8
  %13 = add i64 %12, 64
  %14 = and i64 %13, 4294967232
  %15 = and i64 %12, -4294967233
  %16 = or disjoint i64 %14, %15
  store i64 %16, ptr %11, align 8
  %17 = getelementptr inbounds nuw i8, ptr %0, i64 176
  %18 = load ptr, ptr %17, align 8, !tbaa !33
  %.not25 = icmp eq ptr %18, null
  br i1 %.not25, label %23, label %19

19:                                               ; preds = %7
  %.val30 = load ptr, ptr %5, align 8, !tbaa !31
  %20 = ptrtoint ptr %.val30 to i64
  %21 = and i64 %20, -2
  %22 = inttoptr i64 %21 to ptr
  tail call void @Aig_ObjAddFanout(ptr noundef nonnull %0, ptr noundef %22, ptr noundef nonnull %1) #11
  br label %23

23:                                               ; preds = %7, %19, %4
  %.not26 = icmp eq ptr %3, null
  %.val7.i.pre38 = load ptr, ptr %6, align 8, !tbaa !32
  br i1 %.not26, label %40, label %24

24:                                               ; preds = %23
  %25 = ptrtoint ptr %.val7.i.pre38 to i64
  %26 = and i64 %25, -2
  %27 = inttoptr i64 %26 to ptr
  %28 = getelementptr inbounds nuw i8, ptr %27, i64 24
  %29 = load i64, ptr %28, align 8
  %30 = add i64 %29, 64
  %31 = and i64 %30, 4294967232
  %32 = and i64 %29, -4294967233
  %33 = or disjoint i64 %31, %32
  store i64 %33, ptr %28, align 8
  %34 = getelementptr inbounds nuw i8, ptr %0, i64 176
  %35 = load ptr, ptr %34, align 8, !tbaa !33
  %.not27 = icmp eq ptr %35, null
  %.val7.i.pre37 = load ptr, ptr %6, align 8, !tbaa !32
  br i1 %.not27, label %40, label %36

36:                                               ; preds = %24
  %37 = ptrtoint ptr %.val7.i.pre37 to i64
  %38 = and i64 %37, -2
  %39 = inttoptr i64 %38 to ptr
  tail call void @Aig_ObjAddFanout(ptr noundef nonnull %0, ptr noundef %39, ptr noundef nonnull %1) #11
  %.val7.i.pre = load ptr, ptr %6, align 8, !tbaa !32
  br label %40

40:                                               ; preds = %24, %36, %23
  %.val7.i = phi ptr [ %.val7.i.pre37, %24 ], [ %.val7.i.pre, %36 ], [ %.val7.i.pre38, %23 ]
  %41 = ptrtoint ptr %.val7.i to i64
  %42 = and i64 %41, -2
  %.not.i = icmp eq i64 %42, 0
  br i1 %.not.i, label %64, label %43

43:                                               ; preds = %40
  %44 = inttoptr i64 %42 to ptr
  %45 = getelementptr i8, ptr %1, i64 24
  %.val8.i = load i64, ptr %45, align 8
  %46 = and i64 %.val8.i, 7
  %47 = icmp eq i64 %46, 6
  %48 = select i1 %47, i32 2, i32 1
  %.val5.i = load ptr, ptr %5, align 8, !tbaa !31
  %49 = ptrtoint ptr %.val5.i to i64
  %50 = and i64 %49, -2
  %51 = inttoptr i64 %50 to ptr
  %52 = getelementptr inbounds nuw i8, ptr %51, i64 24
  %53 = load i64, ptr %52, align 8
  %54 = lshr i64 %53, 32
  %55 = trunc nuw i64 %54 to i32
  %56 = and i32 %55, 16777215
  %57 = getelementptr inbounds nuw i8, ptr %44, i64 24
  %58 = load i64, ptr %57, align 8
  %59 = lshr i64 %58, 32
  %60 = trunc nuw i64 %59 to i32
  %61 = and i32 %60, 16777215
  %62 = tail call i32 @llvm.umax.i32(i32 %56, i32 %61)
  %63 = add nuw nsw i32 %62, %48
  br label %Aig_ObjLevelNew.exit

64:                                               ; preds = %40
  %.val.i = load ptr, ptr %5, align 8, !tbaa !31
  %65 = ptrtoint ptr %.val.i to i64
  %66 = and i64 %65, -2
  %67 = inttoptr i64 %66 to ptr
  %68 = getelementptr inbounds nuw i8, ptr %67, i64 24
  %69 = load i64, ptr %68, align 8
  %70 = lshr i64 %69, 32
  %71 = trunc nuw i64 %70 to i32
  %.phi.trans.insert = getelementptr inbounds nuw i8, ptr %1, i64 24
  %.pre = load i64, ptr %.phi.trans.insert, align 8
  br label %Aig_ObjLevelNew.exit

Aig_ObjLevelNew.exit:                             ; preds = %43, %64
  %72 = phi i64 [ %.val8.i, %43 ], [ %.pre, %64 ]
  %.in = phi i32 [ %63, %43 ], [ %71, %64 ]
  %73 = and i32 %.in, 16777215
  %74 = getelementptr inbounds nuw i8, ptr %1, i64 24
  %75 = zext nneg i32 %73 to i64
  %76 = shl nuw nsw i64 %75, 32
  %77 = and i64 %72, -72057589742960641
  %78 = or disjoint i64 %76, %77
  store i64 %78, ptr %74, align 8
  br i1 %.not, label %Aig_ObjPhaseReal.exit, label %79

79:                                               ; preds = %Aig_ObjLevelNew.exit
  %80 = ptrtoint ptr %2 to i64
  %81 = and i64 %80, -2
  %82 = inttoptr i64 %81 to ptr
  %83 = getelementptr inbounds nuw i8, ptr %82, i64 24
  %84 = load i64, ptr %83, align 8
  %85 = trunc i64 %84 to i32
  %86 = lshr i32 %85, 3
  %87 = trunc i64 %80 to i32
  %88 = xor i32 %86, %87
  %89 = and i32 %88, 1
  br label %Aig_ObjPhaseReal.exit

Aig_ObjPhaseReal.exit:                            ; preds = %Aig_ObjLevelNew.exit, %79
  %90 = phi i32 [ %89, %79 ], [ 1, %Aig_ObjLevelNew.exit ]
  br i1 %.not26, label %Aig_ObjPhaseReal.exit36, label %91

91:                                               ; preds = %Aig_ObjPhaseReal.exit
  %92 = ptrtoint ptr %3 to i64
  %93 = and i64 %92, -2
  %94 = inttoptr i64 %93 to ptr
  %95 = getelementptr inbounds nuw i8, ptr %94, i64 24
  %96 = load i64, ptr %95, align 8
  %97 = trunc i64 %96 to i32
  %98 = lshr i32 %97, 3
  %99 = trunc i64 %92 to i32
  %100 = xor i32 %98, %99
  br label %Aig_ObjPhaseReal.exit36

Aig_ObjPhaseReal.exit36:                          ; preds = %Aig_ObjPhaseReal.exit, %91
  %101 = phi i32 [ %100, %91 ], [ 1, %Aig_ObjPhaseReal.exit ]
  %102 = and i32 %101, %90
  %103 = shl nuw nsw i32 %102, 3
  %104 = zext nneg i32 %103 to i64
  %105 = and i64 %78, -9
  %106 = or disjoint i64 %105, %104
  store i64 %106, ptr %74, align 8
  %107 = getelementptr inbounds nuw i8, ptr %0, i64 160
  %108 = load ptr, ptr %107, align 8, !tbaa !34
  %.not28 = icmp eq ptr %108, null
  br i1 %.not28, label %114, label %109

109:                                              ; preds = %Aig_ObjPhaseReal.exit36
  %110 = trunc i64 %72 to i32
  %111 = and i32 %110, 7
  %112 = add nsw i32 %111, -7
  %narrow.i = icmp ult i32 %112, -2
  br i1 %narrow.i, label %114, label %113

113:                                              ; preds = %109
  tail call void @Aig_TableInsert(ptr noundef nonnull %0, ptr noundef nonnull %1) #11
  br label %114

114:                                              ; preds = %113, %109, %Aig_ObjPhaseReal.exit36
  ret void
}